; Function Attrs: mustprogress uwtable
define hidden void @_ZN6google8protobuf2io18StringOutputStream6BackUpEi(ptr noundef nonnull readonly align 8 captures(none) dereferenceable(16) %0, i32 noundef %1) unnamed_addr #6 align 2 personality ptr @__gxx_personality_v0 {
  %3 = alloca %"class.google::protobuf::internal::LogMessage", align 8
  %4 = alloca %"class.google::protobuf::internal::LogFinisher", align 1
  %5 = alloca %"class.google::protobuf::internal::LogMessage", align 8
  %6 = alloca %"class.google::protobuf::internal::LogFinisher", align 1
  %7 = alloca %"class.google::protobuf::internal::LogMessage", align 8
  %8 = alloca %"class.google::protobuf::internal::LogFinisher", align 1
  %9 = icmp slt i32 %1, 0
  call void @llvm.lifetime.start.p0(i64 1, ptr nonnull %4) #19
  br i1 %9, label %10, label %13

10:                                               ; preds = %2
  call void @llvm.lifetime.start.p0(i64 56, ptr nonnull %3) #19
  call void @_ZN6google8protobuf8internal10LogMessageC1ENS0_8LogLevelEPKci(ptr noundef nonnull align 8 dereferenceable(56) %3, i32 noundef 3, ptr noundef nonnull @.str, i32 noundef 169)
  %11 = invoke noundef nonnull align 8 dereferenceable(56) ptr @_ZN6google8protobuf8internal10LogMessagelsEPKc(ptr noundef nonnull align 8 dereferenceable(56) %3, ptr noundef nonnull @.str.4)
          to label %12 unwind label %34

12:                                               ; preds = %10
  invoke void @_ZN6google8protobuf8internal11LogFinisheraSERNS1_10LogMessageE(ptr noundef nonnull align 1 dereferenceable(1) %4, ptr noundef nonnull align 8 dereferenceable(56) %11)
          to label %14 unwind label %36

13:                                               ; preds = %2
  call void @llvm.lifetime.end.p0(i64 1, ptr nonnull %4) #19
  br label %.critedge35

14:                                               ; preds = %12
  call void @llvm.lifetime.end.p0(i64 1, ptr nonnull %4) #19
  call void @_ZN6google8protobuf8internal10LogMessageD1Ev(ptr noundef nonnull align 8 dereferenceable(56) %3) #19
  call void @llvm.lifetime.end.p0(i64 56, ptr nonnull %3) #19
  br label %.critedge35

.critedge35:                                      ; preds = %13, %14
  %15 = getelementptr inbounds nuw i8, ptr %0, i64 8
  %16 = load ptr, ptr %15, align 8, !tbaa !26
  %.not = icmp eq ptr %16, null
  call void @llvm.lifetime.start.p0(i64 1, ptr nonnull %6) #19
  br i1 %.not, label %17, label %20

17:                                               ; preds = %.critedge35
  call void @llvm.lifetime.start.p0(i64 56, ptr nonnull %5) #19
  call void @_ZN6google8protobuf8internal10LogMessageC1ENS0_8LogLevelEPKci(ptr noundef nonnull align 8 dereferenceable(56) %5, i32 noundef 3, ptr noundef nonnull @.str, i32 noundef 170)
  %18 = invoke noundef nonnull align 8 dereferenceable(56) ptr @_ZN6google8protobuf8internal10LogMessagelsEPKc(ptr noundef nonnull align 8 dereferenceable(56) %5, ptr noundef nonnull @.str.5)
          to label %19 unwind label %39

19:                                               ; preds = %17
  invoke void @_ZN6google8protobuf8internal11LogFinisheraSERNS1_10LogMessageE(ptr noundef nonnull align 1 dereferenceable(1) %6, ptr noundef nonnull align 8 dereferenceable(56) %18)
          to label %21 unwind label %41

20:                                               ; preds = %.critedge35
  call void @llvm.lifetime.end.p0(i64 1, ptr nonnull %6) #19
  br label %.critedge39

21:                                               ; preds = %19
  call void @llvm.lifetime.end.p0(i64 1, ptr nonnull %6) #19
  call void @_ZN6google8protobuf8internal10LogMessageD1Ev(ptr noundef nonnull align 8 dereferenceable(56) %5) #19
  call void @llvm.lifetime.end.p0(i64 56, ptr nonnull %5) #19
  %.pre = load ptr, ptr %15, align 8, !tbaa !26
  br label %.critedge39

.critedge39:                                      ; preds = %20, %21
  %22 = phi ptr [ %16, %20 ], [ %.pre, %21 ]
  %23 = sext i32 %1 to i64
  %24 = getelementptr inbounds nuw i8, ptr %22, i64 8
  %25 = load i64, ptr %24, align 8, !tbaa !29
  %.not30 = icmp ult i64 %25, %23
  call void @llvm.lifetime.start.p0(i64 1, ptr nonnull %8) #19
  br i1 %.not30, label %26, label %29

26:                                               ; preds = %.critedge39
  call void @llvm.lifetime.start.p0(i64 56, ptr nonnull %7) #19
  call void @_ZN6google8protobuf8internal10LogMessageC1ENS0_8LogLevelEPKci(ptr noundef nonnull align 8 dereferenceable(56) %7, i32 noundef 3, ptr noundef nonnull @.str, i32 noundef 171)
  %27 = invoke noundef nonnull align 8 dereferenceable(56) ptr @_ZN6google8protobuf8internal10LogMessagelsEPKc(ptr noundef nonnull align 8 dereferenceable(56) %7, ptr noundef nonnull @.str.6)
          to label %28 unwind label %44

28:                                               ; preds = %26
  invoke void @_ZN6google8protobuf8internal11LogFinisheraSERNS1_10LogMessageE(ptr noundef nonnull align 1 dereferenceable(1) %8, ptr noundef nonnull align 8 dereferenceable(56) %27)
          to label %30 unwind label %46

29:                                               ; preds = %.critedge39
  call void @llvm.lifetime.end.p0(i64 1, ptr nonnull %8) #19
  br label %.critedge43

30:                                               ; preds = %28
  call void @llvm.lifetime.end.p0(i64 1, ptr nonnull %8) #19
  call void @_ZN6google8protobuf8internal10LogMessageD1Ev(ptr noundef nonnull align 8 dereferenceable(56) %7) #19
  call void @llvm.lifetime.end.p0(i64 56, ptr nonnull %7) #19
  %.pre46 = load ptr, ptr %15, align 8, !tbaa !26
  %.phi.trans.insert = getelementptr inbounds nuw i8, ptr %.pre46, i64 8
  %.pre47 = load i64, ptr %.phi.trans.insert, align 8, !tbaa !29
  br label %.critedge43

.critedge43:                                      ; preds = %29, %30
  %31 = phi i64 [ %25, %29 ], [ %.pre47, %30 ]
  %32 = phi ptr [ %22, %29 ], [ %.pre46, %30 ]
  %33 = sub i64 %31, %23
  call void @_ZNSt7__cxx1112basic_stringIcSt11char_traitsIcESaIcEE6resizeEmc(ptr noundef nonnull align 8 dereferenceable(32) %32, i64 noundef %33, i8 noundef signext 0)
  ret void

34:                                               ; preds = %10
  %35 = landingpad { ptr, i32 }
          cleanup
  br label %38

36:                                               ; preds = %12
  %37 = landingpad { ptr, i32 }
          cleanup
  call void @llvm.lifetime.end.p0(i64 1, ptr nonnull %4) #19
  br label %38

38:                                               ; preds = %34, %36
  %.pn = phi { ptr, i32 } [ %37, %36 ], [ %35, %34 ]
  call void @_ZN6google8protobuf8internal10LogMessageD1Ev(ptr noundef nonnull align 8 dereferenceable(56) %3) #19
  call void @llvm.lifetime.end.p0(i64 56, ptr nonnull %3) #19
  br label %49

39:                                               ; preds = %17
  %40 = landingpad { ptr, i32 }
          cleanup
  br label %43

41:                                               ; preds = %19
  %42 = landingpad { ptr, i32 }
          cleanup
  call void @llvm.lifetime.end.p0(i64 1, ptr nonnull %6) #19
  br label %43

43:                                               ; preds = %39, %41
  %.pn28 = phi { ptr, i32 } [ %42, %41 ], [ %40, %39 ]
  call void @_ZN6google8protobuf8internal10LogMessageD1Ev(ptr noundef nonnull align 8 dereferenceable(56) %5) #19
  call void @llvm.lifetime.end.p0(i64 56, ptr nonnull %5) #19
  br label %49

44:                                               ; preds = %26
  %45 = landingpad { ptr, i32 }
          cleanup
  br label %48

46:                                               ; preds = %28
  %47 = landingpad { ptr, i32 }
          cleanup
  call void @llvm.lifetime.end.p0(i64 1, ptr nonnull %8) #19
  br label %48

48:                                               ; preds = %44, %46
  %.pn31 = phi { ptr, i32 } [ %47, %46 ], [ %45, %44 ]
  call void @_ZN6google8protobuf8internal10LogMessageD1Ev(ptr noundef nonnull align 8 dereferenceable(56) %7) #19
  call void @llvm.lifetime.end.p0(i64 56, ptr nonnull %7) #19
  br label %49

49:                                               ; preds = %48, %43, %38
  %.pn31.pn = phi { ptr, i32 } [ %.pn31, %48 ], [ %.pn28, %43 ], [ %.pn, %38 ]
  resume { ptr, i32 } %.pn31.pn
}